; Function Attrs: mustprogress nofree norecurse nosync nounwind willreturn memory(argmem: write) uwtable
define void @_ZN16HydrogenBondDataC2Ebbb(ptr noundef nonnull writeonly align 8 captures(none) dereferenceable(392) initializes((0, 2), (4, 12), (16, 392)) %0, i1 noundef zeroext %1, i1 noundef zeroext %2, i1 noundef zeroext %3) unnamed_addr #11 align 2 {
  %5 = zext i1 %1 to i8
  %6 = zext i1 %2 to i8
  store i8 %5, ptr %0, align 8, !tbaa !16
  %7 = getelementptr inbounds nuw i8, ptr %0, i64 1
  store i8 %6, ptr %7, align 1, !tbaa !49
  %8 = getelementptr inbounds nuw i8, ptr %0, i64 4
  store i32 32, ptr %8, align 4, !tbaa !50
  %9 = getelementptr inbounds nuw i8, ptr %0, i64 8
  %10 = select i1 %3, i32 1, i32 4
  store i32 %10, ptr %9, align 8, !tbaa !51
  %11 = getelementptr inbounds nuw i8, ptr %0, i64 16
  tail call void @llvm.memset.p0.i64(ptr noundef nonnull align 8 dereferenceable(376) %11, i8 0, i64 376, i1 false)
  ret void
}